target datalayout = "e-m:e-p270:32:32-p271:32:32-p272:64:64-i64:64-i128:128-f80:128-n8:16:32:64-S128"
target triple = "x86_64-pc-linux-gnu"

@.str = private unnamed_addr constant [103 x i8] c"generated/home/dtcxzyw/WorkSpace/Projects/compilers/llvm-opt-benchmark/bench/hdf5/hdf5/src/H5Pencdec.c\00", align 1
@H5E_PLIST_g = external global i64, align 8
@H5E_BADVALUE_g = external global i64, align 8
@__func__.H5P__decode_uint64_t = private unnamed_addr constant [21 x i8] c"H5P__decode_uint64_t\00", align 1
@.str.5 = private unnamed_addr constant [32 x i8] c"uint64_t value can't be decoded\00", align 1

; Function Attrs: nounwind uwtable
define i32 @H5P__decode_uint64_t(ptr noundef %0, ptr noundef %1) #0 {
  %3 = alloca ptr, align 8
  %4 = alloca ptr, align 8
  %5 = alloca ptr, align 8
  %6 = alloca ptr, align 8
  %7 = alloca i32, align 4
  %8 = alloca i32, align 4
  %9 = alloca i8, align 1
  %10 = alloca i64, align 8
  store ptr %0, ptr %3, align 8
  store ptr %1, ptr %4, align 8
  %11 = load ptr, ptr %4, align 8
  store ptr %11, ptr %5, align 8
  %12 = load ptr, ptr %3, align 8
  store ptr %12, ptr %6, align 8
  store i32 0, ptr %8, align 4
  store i8 0, ptr %9, align 1
  %13 = load ptr, ptr %6, align 8
  %14 = load ptr, ptr %13, align 8
  %15 = getelementptr inbounds i8, ptr %14, i32 1
  store ptr %15, ptr %13, align 8
  %16 = load i8, ptr %14, align 1
  %17 = zext i8 %16 to i32
  store i32 %17, ptr %7, align 4
  %18 = load i32, ptr %7, align 4
  %19 = zext i32 %18 to i64
  %20 = icmp ne i64 %19, 8
  br i1 %20, label %21, label %36

21:                                               ; preds = %2
  br label %22

22:                                               ; preds = %21
  br label %23

23:                                               ; preds = %22
  br label %24

24:                                               ; preds = %23
  %25 = load i64, ptr @H5E_PLIST_g, align 8
  %26 = load i64, ptr @H5E_BADVALUE_g, align 8
  %27 = call i32 (ptr, ptr, i32, i64, i64, ptr, ...) @H5E_printf_stack(ptr noundef @.str, ptr noundef @__func__.H5P__decode_uint64_t, i32 noundef 677, i64 noundef %25, i64 noundef %26, ptr noundef @.str.5)
  br label %28

28:                                               ; preds = %24
  store i8 1, ptr %9, align 1
  %29 = load i8, ptr %9, align 1
  %30 = trunc i8 %29 to i1
  %31 = zext i1 %30 to i8
  store i8 %31, ptr %9, align 1
  br label %32

32:                                               ; preds = %28
  br label %33

33:                                               ; preds = %32
  store i32 -1, ptr %8, align 4
  br label %64

34:                                               ; No predecessors!
  br label %35

35:                                               ; preds = %34
  br label %36

36:                                               ; preds = %35, %2
  br label %37

37:                                               ; preds = %36
  %38 = load ptr, ptr %5, align 8
  store i64 0, ptr %38, align 8
  %39 = load ptr, ptr %6, align 8
  %40 = load ptr, ptr %39, align 8
  %41 = getelementptr inbounds i8, ptr %40, i64 8
  store ptr %41, ptr %39, align 8
  store i64 0, ptr %10, align 8
  br label %42

42:                                               ; preds = %56, %37
  %43 = load i64, ptr %10, align 8
  %44 = icmp ult i64 %43, 8
  br i1 %44, label %45, label %59

45:                                               ; preds = %42
  %46 = load ptr, ptr %5, align 8
  %47 = load i64, ptr %46, align 8
  %48 = shl i64 %47, 8
  %49 = load ptr, ptr %6, align 8
  %50 = load ptr, ptr %49, align 8
  %51 = getelementptr inbounds i8, ptr %50, i32 -1
  store ptr %51, ptr %49, align 8
  %52 = load i8, ptr %51, align 1
  %53 = zext i8 %52 to i64
  %54 = or i64 %48, %53
  %55 = load ptr, ptr %5, align 8
  store i64 %54, ptr %55, align 8
  br label %56

56:                                               ; preds = %45
  %57 = load i64, ptr %10, align 8
  %58 = add i64 %57, 1
  store i64 %58, ptr %10, align 8
  br label %42

59:                                               ; preds = %42
  %60 = load ptr, ptr %6, align 8
  %61 = load ptr, ptr %60, align 8
  %62 = getelementptr inbounds i8, ptr %61, i64 8
  store ptr %62, ptr %60, align 8
  br label %63

63:                                               ; preds = %59
  br label %64

64:                                               ; preds = %63, %33
  %65 = load i32, ptr %8, align 4
  ret i32 %65
}