; Function Attrs: nounwind uwtable
define range(i32 -1, 1) i32 @H5P__decode_uint64_t(ptr noundef captures(none) %0, ptr noundef captures(none) %1) local_unnamed_addr #2 {
  %3 = load ptr, ptr %0, align 8
  %4 = getelementptr inbounds nuw i8, ptr %3, i64 1
  store ptr %4, ptr %0, align 8
  %5 = load i8, ptr %3, align 1
  %.not = icmp eq i8 %5, 8
  br i1 %.not, label %10, label %6

6:                                                ; preds = %2
  %7 = load i64, ptr @H5E_PLIST_g, align 8
  %8 = load i64, ptr @H5E_BADVALUE_g, align 8
  %9 = tail call i32 (ptr, ptr, i32, i64, i64, ptr, ...) @H5E_printf_stack(ptr noundef nonnull @.str, ptr noundef nonnull @__func__.H5P__decode_uint64_t, i32 noundef 677, i64 noundef %7, i64 noundef %8, ptr noundef nonnull @.str.5) #8
  br label %25

10:                                               ; preds = %2
  store i64 0, ptr %1, align 8
  %11 = load ptr, ptr %0, align 8
  %12 = getelementptr inbounds nuw i8, ptr %11, i64 8
  store ptr %12, ptr %0, align 8
  %.pre = load i64, ptr %1, align 8
  br label %13

13:                                               ; preds = %10, %13
  %14 = phi i64 [ %.pre, %10 ], [ %20, %13 ]
  %.014 = phi i64 [ 0, %10 ], [ %21, %13 ]
  %15 = shl i64 %14, 8
  %16 = load ptr, ptr %0, align 8
  %17 = getelementptr inbounds i8, ptr %16, i64 -1
  store ptr %17, ptr %0, align 8
  %18 = load i8, ptr %17, align 1
  %19 = zext i8 %18 to i64
  %20 = or disjoint i64 %15, %19
  store i64 %20, ptr %1, align 8
  %21 = add nuw nsw i64 %.014, 1
  %exitcond.not = icmp eq i64 %21, 8
  br i1 %exitcond.not, label %22, label %13

22:                                               ; preds = %13
  %23 = load ptr, ptr %0, align 8
  %24 = getelementptr inbounds nuw i8, ptr %23, i64 8
  store ptr %24, ptr %0, align 8
  br label %25

25:                                               ; preds = %22, %6
  %.013 = phi i32 [ -1, %6 ], [ 0, %22 ]
  ret i32 %.013
}